#include <math.h>
#include <stdio.h>
#include <stdlib.h>
#include <string.h>
#include <iostream>
using namespace std;

//********************************
//*??  ??                *****
//*????? 1300012753     ***** 
//*???2013.10.30          *****   
//********************************
int main()
{
	int a[15], sum = 0, b, n = 0;  // a????????sum?????????????b???????n?????????? 
	while(cin >> b)
	{ 
	    // ??????-1???????? 
		if (b == -1)
		break;
		
		// ??b??0??????????????? 
		else if (b == 0)
		{
			for(int i = 0; i <= n - 1; i++)
			{
				 // ???????????????????? 
				for(int j = i + 1; j <= n - 1; j++)
				{
					// ??????????????2????????? 
					if (a[i] == 2 * a[j] || a[j] == 2 * a[i])
					{
						sum++;
					}
				}
			}
			cout << sum << endl;
			sum = 0;
			n = 0;
		}
		
		// ??b???0??????????????? 
		else
		{
			a[n] = b;
			n++;
		}
	}
	return 0;
}